target datalayout = "e-m:e-p270:32:32-p271:32:32-p272:64:64-i64:64-i128:128-f80:128-n8:16:32:64-S128"
target triple = "x86_64-pc-linux-gnu"

%struct.H5D_earray_filt_elmt_t = type { i64, i32, i32 }
%struct.H5D_earray_ctx_t = type { i64, i64 }

@H5D_init_g = external global i8, align 1
@H5_libterm_g = external global i8, align 1

; Function Attrs: nounwind uwtable
define internal i32 @H5D__earray_filt_decode(ptr noundef %0, ptr noundef %1, i64 noundef %2, ptr noundef %3) #0 {
  %5 = alloca ptr, align 8
  %6 = alloca ptr, align 8
  %7 = alloca i64, align 8
  %8 = alloca ptr, align 8
  %9 = alloca ptr, align 8
  %10 = alloca ptr, align 8
  %11 = alloca ptr, align 8
  %12 = alloca i64, align 8
  store ptr %0, ptr %5, align 8, !tbaa !80
  store ptr %1, ptr %6, align 8, !tbaa !80
  store i64 %2, ptr %7, align 8, !tbaa !10
  store ptr %3, ptr %8, align 8, !tbaa !80
  call void @llvm.lifetime.start.p0(i64 8, ptr %9) #8
  %13 = load ptr, ptr %8, align 8, !tbaa !80
  store ptr %13, ptr %9, align 8, !tbaa !107
  call void @llvm.lifetime.start.p0(i64 8, ptr %10) #8
  %14 = load ptr, ptr %6, align 8, !tbaa !80
  store ptr %14, ptr %10, align 8, !tbaa !120
  call void @llvm.lifetime.start.p0(i64 8, ptr %11) #8
  %15 = load ptr, ptr %5, align 8, !tbaa !80
  store ptr %15, ptr %11, align 8, !tbaa !113
  %16 = load i8, ptr @H5D_init_g, align 1, !tbaa !14, !range !16, !noundef !17
  %17 = trunc i8 %16 to i1
  br i1 %17, label %22, label %18

18:                                               ; preds = %4
  %19 = load i8, ptr @H5_libterm_g, align 1, !tbaa !14, !range !16, !noundef !17
  %20 = trunc i8 %19 to i1
  %21 = xor i1 %20, true
  br label %22

22:                                               ; preds = %18, %4
  %23 = phi i1 [ true, %4 ], [ %21, %18 ]
  %24 = xor i1 %23, true
  %25 = xor i1 %24, true
  %26 = zext i1 %25 to i32
  %27 = sext i32 %26 to i64
  %28 = call i64 @llvm.expect.i64(i64 %27, i64 1)
  %29 = icmp ne i64 %28, 0
  br i1 %29, label %30, label %126

30:                                               ; preds = %22
  br label %31

31:                                               ; preds = %120, %30
  %32 = load i64, ptr %7, align 8, !tbaa !10
  %33 = icmp ne i64 %32, 0
  br i1 %33, label %34, label %125

34:                                               ; preds = %31
  %35 = load ptr, ptr %9, align 8, !tbaa !107
  %36 = getelementptr inbounds nuw %struct.H5D_earray_ctx_t, ptr %35, i32 0, i32 0
  %37 = load i64, ptr %36, align 8, !tbaa !109
  %38 = load ptr, ptr %10, align 8, !tbaa !120
  %39 = getelementptr inbounds nuw %struct.H5D_earray_filt_elmt_t, ptr %38, i32 0, i32 0
  call void @H5F_addr_decode_len(i64 noundef %37, ptr noundef %11, ptr noundef %39)
  br label %40

40:                                               ; preds = %34
  call void @llvm.lifetime.start.p0(i64 8, ptr %12) #8
  %41 = load ptr, ptr %10, align 8, !tbaa !120
  %42 = getelementptr inbounds nuw %struct.H5D_earray_filt_elmt_t, ptr %41, i32 0, i32 1
  store i32 0, ptr %42, align 8, !tbaa !69
  %43 = load ptr, ptr %9, align 8, !tbaa !107
  %44 = getelementptr inbounds nuw %struct.H5D_earray_ctx_t, ptr %43, i32 0, i32 1
  %45 = load i64, ptr %44, align 8, !tbaa !111
  %46 = load ptr, ptr %11, align 8, !tbaa !113
  %47 = getelementptr inbounds nuw i8, ptr %46, i64 %45
  store ptr %47, ptr %11, align 8, !tbaa !113
  store i64 0, ptr %12, align 8, !tbaa !10
  br label %48

48:                                               ; preds = %66, %40
  %49 = load i64, ptr %12, align 8, !tbaa !10
  %50 = load ptr, ptr %9, align 8, !tbaa !107
  %51 = getelementptr inbounds nuw %struct.H5D_earray_ctx_t, ptr %50, i32 0, i32 1
  %52 = load i64, ptr %51, align 8, !tbaa !111
  %53 = icmp ult i64 %49, %52
  br i1 %53, label %54, label %69

54:                                               ; preds = %48
  %55 = load ptr, ptr %10, align 8, !tbaa !120
  %56 = getelementptr inbounds nuw %struct.H5D_earray_filt_elmt_t, ptr %55, i32 0, i32 1
  %57 = load i32, ptr %56, align 8, !tbaa !69
  %58 = shl i32 %57, 8
  %59 = load ptr, ptr %11, align 8, !tbaa !113
  %60 = getelementptr inbounds i8, ptr %59, i32 -1
  store ptr %60, ptr %11, align 8, !tbaa !113
  %61 = load i8, ptr %60, align 1, !tbaa !26
  %62 = zext i8 %61 to i32
  %63 = or i32 %58, %62
  %64 = load ptr, ptr %10, align 8, !tbaa !120
  %65 = getelementptr inbounds nuw %struct.H5D_earray_filt_elmt_t, ptr %64, i32 0, i32 1
  store i32 %63, ptr %65, align 8, !tbaa !69
  br label %66

66:                                               ; preds = %54
  %67 = load i64, ptr %12, align 8, !tbaa !10
  %68 = add i64 %67, 1
  store i64 %68, ptr %12, align 8, !tbaa !10
  br label %48, !llvm.loop !124

69:                                               ; preds = %48
  %70 = load ptr, ptr %9, align 8, !tbaa !107
  %71 = getelementptr inbounds nuw %struct.H5D_earray_ctx_t, ptr %70, i32 0, i32 1
  %72 = load i64, ptr %71, align 8, !tbaa !111
  %73 = load ptr, ptr %11, align 8, !tbaa !113
  %74 = getelementptr inbounds nuw i8, ptr %73, i64 %72
  store ptr %74, ptr %11, align 8, !tbaa !113
  call void @llvm.lifetime.end.p0(i64 8, ptr %12) #8
  br label %75

75:                                               ; preds = %69
  br label %76

76:                                               ; preds = %75
  br label %77

77:                                               ; preds = %76
  %78 = load ptr, ptr %11, align 8, !tbaa !113
  %79 = load i8, ptr %78, align 1, !tbaa !26
  %80 = zext i8 %79 to i32
  %81 = and i32 %80, 255
  %82 = load ptr, ptr %10, align 8, !tbaa !120
  %83 = getelementptr inbounds nuw %struct.H5D_earray_filt_elmt_t, ptr %82, i32 0, i32 2
  store i32 %81, ptr %83, align 4, !tbaa !71
  %84 = load ptr, ptr %11, align 8, !tbaa !113
  %85 = getelementptr inbounds nuw i8, ptr %84, i32 1
  store ptr %85, ptr %11, align 8, !tbaa !113
  %86 = load ptr, ptr %11, align 8, !tbaa !113
  %87 = load i8, ptr %86, align 1, !tbaa !26
  %88 = zext i8 %87 to i32
  %89 = and i32 %88, 255
  %90 = shl i32 %89, 8
  %91 = load ptr, ptr %10, align 8, !tbaa !120
  %92 = getelementptr inbounds nuw %struct.H5D_earray_filt_elmt_t, ptr %91, i32 0, i32 2
  %93 = load i32, ptr %92, align 4, !tbaa !71
  %94 = or i32 %93, %90
  store i32 %94, ptr %92, align 4, !tbaa !71
  %95 = load ptr, ptr %11, align 8, !tbaa !113
  %96 = getelementptr inbounds nuw i8, ptr %95, i32 1
  store ptr %96, ptr %11, align 8, !tbaa !113
  %97 = load ptr, ptr %11, align 8, !tbaa !113
  %98 = load i8, ptr %97, align 1, !tbaa !26
  %99 = zext i8 %98 to i32
  %100 = and i32 %99, 255
  %101 = shl i32 %100, 16
  %102 = load ptr, ptr %10, align 8, !tbaa !120
  %103 = getelementptr inbounds nuw %struct.H5D_earray_filt_elmt_t, ptr %102, i32 0, i32 2
  %104 = load i32, ptr %103, align 4, !tbaa !71
  %105 = or i32 %104, %101
  store i32 %105, ptr %103, align 4, !tbaa !71
  %106 = load ptr, ptr %11, align 8, !tbaa !113
  %107 = getelementptr inbounds nuw i8, ptr %106, i32 1
  store ptr %107, ptr %11, align 8, !tbaa !113
  %108 = load ptr, ptr %11, align 8, !tbaa !113
  %109 = load i8, ptr %108, align 1, !tbaa !26
  %110 = zext i8 %109 to i32
  %111 = and i32 %110, 255
  %112 = shl i32 %111, 24
  %113 = load ptr, ptr %10, align 8, !tbaa !120
  %114 = getelementptr inbounds nuw %struct.H5D_earray_filt_elmt_t, ptr %113, i32 0, i32 2
  %115 = load i32, ptr %114, align 4, !tbaa !71
  %116 = or i32 %115, %112
  store i32 %116, ptr %114, align 4, !tbaa !71
  %117 = load ptr, ptr %11, align 8, !tbaa !113
  %118 = getelementptr inbounds nuw i8, ptr %117, i32 1
  store ptr %118, ptr %11, align 8, !tbaa !113
  br label %119

119:                                              ; preds = %77
  br label %120

120:                                              ; preds = %119
  %121 = load ptr, ptr %10, align 8, !tbaa !120
  %122 = getelementptr inbounds nuw %struct.H5D_earray_filt_elmt_t, ptr %121, i32 1
  store ptr %122, ptr %10, align 8, !tbaa !120
  %123 = load i64, ptr %7, align 8, !tbaa !10
  %124 = add i64 %123, -1
  store i64 %124, ptr %7, align 8, !tbaa !10
  br label %31, !llvm.loop !125

125:                                              ; preds = %31
  br label %126

126:                                              ; preds = %125, %22
  call void @llvm.lifetime.end.p0(i64 8, ptr %11) #8
  call void @llvm.lifetime.end.p0(i64 8, ptr %10) #8
  call void @llvm.lifetime.end.p0(i64 8, ptr %9) #8
  ret i32 0
}