; Function Attrs: nounwind uwtable
define internal noundef i32 @H5D__earray_filt_decode(ptr noundef %0, ptr noundef %1, i64 noundef %2, ptr noundef readonly captures(none) %3) #0 {
  %5 = alloca ptr, align 8
  call void @llvm.lifetime.start.p0(i64 8, ptr nonnull %5) #11
  store ptr %0, ptr %5, align 8, !tbaa !90
  %6 = load i8, ptr @H5D_init_g, align 1, !tbaa !3, !range !7, !noundef !8
  %7 = trunc nuw i8 %6 to i1
  %8 = load i8, ptr @H5_libterm_g, align 1, !range !7
  %9 = trunc nuw i8 %8 to i1
  %10 = xor i1 %9, true
  %11 = select i1 %7, i1 true, i1 %10
  %12 = icmp ne i64 %2, 0
  %or.cond = and i1 %12, %11
  br i1 %or.cond, label %.preheader, label %.loopexit, !prof !89

.preheader:                                       ; preds = %4
  %13 = getelementptr inbounds nuw i8, ptr %3, i64 8
  br label %14

14:                                               ; preds = %.preheader, %._crit_edge
  %.022 = phi i64 [ %50, %._crit_edge ], [ %2, %.preheader ]
  %.021 = phi ptr [ %49, %._crit_edge ], [ %1, %.preheader ]
  %15 = load i64, ptr %3, align 8, !tbaa !85
  call void @H5F_addr_decode_len(i64 noundef %15, ptr noundef nonnull %5, ptr noundef %.021) #11
  %16 = getelementptr inbounds nuw i8, ptr %.021, i64 8
  store i32 0, ptr %16, align 8, !tbaa !56
  %17 = load i64, ptr %13, align 8, !tbaa !87
  %18 = load ptr, ptr %5, align 8, !tbaa !90
  %19 = getelementptr inbounds nuw i8, ptr %18, i64 %17
  %.not = icmp eq i64 %17, 0
  br i1 %.not, label %._crit_edge, label %.lr.ph

.lr.ph:                                           ; preds = %14, %.lr.ph
  %20 = phi i32 [ %26, %.lr.ph ], [ 0, %14 ]
  %.026 = phi i64 [ %27, %.lr.ph ], [ 0, %14 ]
  %21 = phi ptr [ %23, %.lr.ph ], [ %19, %14 ]
  %22 = shl i32 %20, 8
  %23 = getelementptr inbounds i8, ptr %21, i64 -1
  store ptr %23, ptr %5, align 8, !tbaa !90
  %24 = load i8, ptr %23, align 1, !tbaa !21
  %25 = zext i8 %24 to i32
  %26 = or disjoint i32 %22, %25
  store i32 %26, ptr %16, align 8, !tbaa !56
  %27 = add nuw i64 %.026, 1
  %exitcond.not = icmp eq i64 %27, %17
  br i1 %exitcond.not, label %._crit_edge, label %.lr.ph, !llvm.loop !96

._crit_edge:                                      ; preds = %.lr.ph, %14
  %28 = phi ptr [ %19, %14 ], [ %23, %.lr.ph ]
  %29 = getelementptr inbounds nuw i8, ptr %28, i64 %17
  store ptr %29, ptr %5, align 8, !tbaa !90
  %30 = load i8, ptr %29, align 1, !tbaa !21
  %31 = zext i8 %30 to i32
  %32 = getelementptr inbounds nuw i8, ptr %.021, i64 12
  store i32 %31, ptr %32, align 4, !tbaa !58
  %33 = getelementptr inbounds nuw i8, ptr %29, i64 1
  store ptr %33, ptr %5, align 8, !tbaa !90
  %34 = load i8, ptr %33, align 1, !tbaa !21
  %35 = zext i8 %34 to i32
  %36 = shl nuw nsw i32 %35, 8
  %37 = or disjoint i32 %36, %31
  store i32 %37, ptr %32, align 4, !tbaa !58
  %38 = getelementptr inbounds nuw i8, ptr %29, i64 2
  store ptr %38, ptr %5, align 8, !tbaa !90
  %39 = load i8, ptr %38, align 1, !tbaa !21
  %40 = zext i8 %39 to i32
  %41 = shl nuw nsw i32 %40, 16
  %42 = or disjoint i32 %41, %37
  store i32 %42, ptr %32, align 4, !tbaa !58
  %43 = getelementptr inbounds nuw i8, ptr %29, i64 3
  store ptr %43, ptr %5, align 8, !tbaa !90
  %44 = load i8, ptr %43, align 1, !tbaa !21
  %45 = zext i8 %44 to i32
  %46 = shl nuw i32 %45, 24
  %47 = or disjoint i32 %46, %42
  store i32 %47, ptr %32, align 4, !tbaa !58
  %48 = getelementptr inbounds nuw i8, ptr %29, i64 4
  store ptr %48, ptr %5, align 8, !tbaa !90
  %49 = getelementptr inbounds nuw i8, ptr %.021, i64 16
  %50 = add i64 %.022, -1
  %.old1.not = icmp eq i64 %50, 0
  br i1 %.old1.not, label %.loopexit, label %14

.loopexit:                                        ; preds = %._crit_edge, %4
  call void @llvm.lifetime.end.p0(i64 8, ptr nonnull %5) #11
  ret i32 0
}